; Function Attrs: mustprogress nounwind uwtable
define noundef ptr @_ZN10duckdb_hll13sdscatvprintfEPcPKcP13__va_list_tag(ptr noundef captures(address, ret: address, provenance) %0, ptr noundef readonly captures(none) %1, ptr noundef %2) local_unnamed_addr #16 {
  %4 = alloca [1 x %struct.__va_list_tag], align 16
  %5 = alloca [1024 x i8], align 16
  call void @llvm.lifetime.start.p0(i64 24, ptr nonnull %4) #30
  call void @llvm.lifetime.start.p0(i64 1024, ptr nonnull %5) #30
  %6 = tail call i64 @strlen(ptr noundef nonnull dereferenceable(1) %1) #29
  %7 = shl i64 %6, 1
  %8 = icmp ugt i64 %7, 1024
  br i1 %8, label %9, label %.preheader

9:                                                ; preds = %3
  %10 = tail call noalias ptr @malloc(i64 noundef %7) #28
  %11 = icmp eq ptr %10, null
  br i1 %11, label %.loopexit, label %.preheader

.preheader:                                       ; preds = %3, %9
  %.124.ph = phi ptr [ %5, %3 ], [ %10, %9 ]
  %.1.ph = phi i64 [ 1024, %3 ], [ %7, %9 ]
  br label %12

12:                                               ; preds = %.preheader, %19
  %.124 = phi ptr [ %21, %19 ], [ %.124.ph, %.preheader ]
  %.1 = phi i64 [ %20, %19 ], [ %.1.ph, %.preheader ]
  %13 = getelementptr i8, ptr %.124, i64 %.1
  %14 = getelementptr i8, ptr %13, i64 -2
  store i8 0, ptr %14, align 1, !tbaa !20
  call void @llvm.va_copy.p0(ptr nonnull %4, ptr %2)
  %15 = call i32 @vsnprintf(ptr noundef nonnull %.124, i64 noundef %.1, ptr noundef nonnull %1, ptr noundef nonnull %4) #30
  call void @llvm.va_end.p0(ptr nonnull %4)
  %16 = load i8, ptr %14, align 1, !tbaa !20
  %.not = icmp eq i8 %16, 0
  br i1 %.not, label %23, label %17

17:                                               ; preds = %12
  %.not29 = icmp eq ptr %.124, %5
  br i1 %.not29, label %19, label %18

18:                                               ; preds = %17
  call void @free(ptr noundef nonnull %.124) #30
  br label %19

19:                                               ; preds = %18, %17
  %20 = shl i64 %.1, 1
  %21 = call noalias ptr @malloc(i64 noundef %20) #28
  %22 = icmp eq ptr %21, null
  br i1 %22, label %.loopexit, label %12, !llvm.loop !26

23:                                               ; preds = %12
  %24 = call i64 @strlen(ptr noundef nonnull readonly dereferenceable(1) %.124) #29
  %25 = getelementptr inbounds i8, ptr %0, i64 -1
  %26 = load i8, ptr %25, align 1, !tbaa !20
  %27 = zext i8 %26 to i32
  %28 = and i32 %27, 7
  switch i32 %28, label %_ZN10duckdb_hllL6sdslenEPc.exit.i.i [
    i32 0, label %29
    i32 1, label %32
    i32 2, label %36
    i32 3, label %40
    i32 4, label %44
  ]

29:                                               ; preds = %23
  %30 = lshr i32 %27, 3
  %31 = zext nneg i32 %30 to i64
  br label %_ZN10duckdb_hllL6sdslenEPc.exit.i.i

32:                                               ; preds = %23
  %33 = getelementptr inbounds i8, ptr %0, i64 -4
  %34 = load i8, ptr %33, align 1, !tbaa !3
  %35 = zext i8 %34 to i64
  br label %_ZN10duckdb_hllL6sdslenEPc.exit.i.i

36:                                               ; preds = %23
  %37 = getelementptr inbounds i8, ptr %0, i64 -6
  %38 = load i16, ptr %37, align 1, !tbaa !8
  %39 = zext i16 %38 to i64
  br label %_ZN10duckdb_hllL6sdslenEPc.exit.i.i

40:                                               ; preds = %23
  %41 = getelementptr inbounds i8, ptr %0, i64 -10
  %42 = load i32, ptr %41, align 1, !tbaa !12
  %43 = zext i32 %42 to i64
  br label %_ZN10duckdb_hllL6sdslenEPc.exit.i.i

44:                                               ; preds = %23
  %45 = getelementptr inbounds i8, ptr %0, i64 -18
  %46 = load i64, ptr %45, align 1, !tbaa !16
  br label %_ZN10duckdb_hllL6sdslenEPc.exit.i.i

_ZN10duckdb_hllL6sdslenEPc.exit.i.i:              ; preds = %44, %40, %36, %32, %29, %23
  %.0.i.i.i = phi i64 [ %46, %44 ], [ %43, %40 ], [ %39, %36 ], [ %35, %32 ], [ %31, %29 ], [ 0, %23 ]
  %47 = call noundef ptr @_ZN10duckdb_hll14sdsMakeRoomForEPcm(ptr noundef nonnull %0, i64 noundef %24)
  %48 = icmp eq ptr %47, null
  br i1 %48, label %_ZN10duckdb_hll6sdscatEPcPKc.exit, label %49

49:                                               ; preds = %_ZN10duckdb_hllL6sdslenEPc.exit.i.i
  %50 = getelementptr inbounds nuw i8, ptr %47, i64 %.0.i.i.i
  call void @llvm.memcpy.p0.p0.i64(ptr nonnull align 1 %50, ptr nonnull readonly align 1 %.124, i64 %24, i1 false)
  %51 = add i64 %.0.i.i.i, %24
  %52 = getelementptr inbounds i8, ptr %47, i64 -1
  %53 = load i8, ptr %52, align 1, !tbaa !20
  %54 = and i8 %53, 7
  switch i8 %54, label %_ZN10duckdb_hllL9sdssetlenEPcm.exit.i.i [
    i8 0, label %55
    i8 1, label %57
    i8 2, label %60
    i8 3, label %63
    i8 4, label %66
  ]

55:                                               ; preds = %49
  %.tr.i.i.i = trunc i64 %51 to i8
  %56 = shl i8 %.tr.i.i.i, 3
  store i8 %56, ptr %52, align 1, !tbaa !20
  br label %_ZN10duckdb_hllL9sdssetlenEPcm.exit.i.i

57:                                               ; preds = %49
  %58 = trunc i64 %51 to i8
  %59 = getelementptr inbounds i8, ptr %47, i64 -4
  store i8 %58, ptr %59, align 1, !tbaa !3
  br label %_ZN10duckdb_hllL9sdssetlenEPcm.exit.i.i

60:                                               ; preds = %49
  %61 = trunc i64 %51 to i16
  %62 = getelementptr inbounds i8, ptr %47, i64 -6
  store i16 %61, ptr %62, align 1, !tbaa !8
  br label %_ZN10duckdb_hllL9sdssetlenEPcm.exit.i.i

63:                                               ; preds = %49
  %64 = trunc i64 %51 to i32
  %65 = getelementptr inbounds i8, ptr %47, i64 -10
  store i32 %64, ptr %65, align 1, !tbaa !12
  br label %_ZN10duckdb_hllL9sdssetlenEPcm.exit.i.i

66:                                               ; preds = %49
  %67 = getelementptr inbounds i8, ptr %47, i64 -18
  store i64 %51, ptr %67, align 1, !tbaa !16
  br label %_ZN10duckdb_hllL9sdssetlenEPcm.exit.i.i

_ZN10duckdb_hllL9sdssetlenEPcm.exit.i.i:          ; preds = %66, %63, %60, %57, %55, %49
  %68 = getelementptr inbounds nuw i8, ptr %47, i64 %51
  store i8 0, ptr %68, align 1, !tbaa !20
  br label %_ZN10duckdb_hll6sdscatEPcPKc.exit

_ZN10duckdb_hll6sdscatEPcPKc.exit:                ; preds = %_ZN10duckdb_hllL6sdslenEPc.exit.i.i, %_ZN10duckdb_hllL9sdssetlenEPcm.exit.i.i
  %.not28 = icmp eq ptr %.124, %5
  br i1 %.not28, label %.loopexit, label %69

69:                                               ; preds = %_ZN10duckdb_hll6sdscatEPcPKc.exit
  call void @free(ptr noundef nonnull %.124) #30
  br label %.loopexit

.loopexit:                                        ; preds = %19, %_ZN10duckdb_hll6sdscatEPcPKc.exit, %69, %9
  %.022 = phi ptr [ null, %9 ], [ %47, %69 ], [ %47, %_ZN10duckdb_hll6sdscatEPcPKc.exit ], [ null, %19 ]
  call void @llvm.lifetime.end.p0(i64 1024, ptr nonnull %5) #30
  call void @llvm.lifetime.end.p0(i64 24, ptr nonnull %4) #30
  ret ptr %.022
}